(dp1
S'AGGCTTCA'
p2
I268667
sS'GGTAATGA'
p3
I239425
sS'TCGAACAC'
p4
I337415
sS'CACTCACT'
p5
I6308
sS'CGTCCCAC'
p6
I318641
sS'CTGTTAGT'
p7
I325699
sS'AGCTGACG'
p8
I55122
sS'GCCTGTTC'
p9
I261366
sS'CAACTTCA'
p10
I328167
sS'GAGTTTGA'
p11
I251347
sS'AACAGTAT'
p12
I303448
sS'CCGCACCG'
p13
I298754
sS'GTAGTCGA'
p14
I7855
sS'CCGACAAA'
p15
I340186
sS'AGAGAGGC'
p16
I285488
sS'TACGATAC'
p17
I268066
sS'ATAGGTGG'
p18
I278504
sS'GTGCTGAT'
p19
I192357
sS'TGGGACCT'
p20
I244010
sS'TGTTTCCC'
p21
I277549
sS'TCAAAGCT'
p22
I284822
sS'CAGCGGCA'
p23
I238225
sS'ATGCCAGC'
p24
I382266
sS'TCCGTGCG'
p25
I10365
s.