(lp0
(dp1
S'twp'
p2
F0.025
sS'dtp'
p3
F0.025
sS'score'
p4
cnumpy.core.multiarray
scalar
p5
(cnumpy
dtype
p6
(S'f8'
p7
I0
I1
tp8
Rp9
(I3
S'<'
p10
NNNI-1
I-1
I0
tp11
bS'6,\xe8T>_\x95\xc1'
p12
tp13
Rp14
sS'n'
p15
I8
sa(dp16
g2
F0.05
sg3
F0.025
sg4
g5
(g9
S'CW\x81\xcd)_\x95\xc1'
p17
tp18
Rp19
sg15
I8
sa(dp20
g2
F0.075
sg3
F0.025
sg4
g5
(g9
S'6(\x98\xd35_\x95\xc1'
p21
tp22
Rp23
sg15
I8
sa(dp24
g2
F0.45
sg3
F0.025
sg4
g5
(g9
S'\xfd\x9d\x90\xab\xcar\x95\xc1'
p25
tp26
Rp27
sg15
I8
sa(dp28
g2
F0.475
sg3
F0.025
sg4
g5
(g9
S'\r\x8f\x98<;t\x95\xc1'
p29
tp30
Rp31
sg15
I8
sa(dp32
g2
F0.5
sg3
F0.025
sg4
g5
(g9
S'\x99\xee\\\xb8\xa9u\x95\xc1'
p33
tp34
Rp35
sg15
I8
sa(dp36
g2
F0.025
sg3
F0.05
sg4
g5
(g9
S'\xa4\xc242;_\x95\xc1'
p37
tp38
Rp39
sg15
I8
sa(dp40
g2
F0.05
sg3
F0.05
sg4
g5
(g9
S'&\xfe\xe2**_\x95\xc1'
p41
tp42
Rp43
sg15
I8
sa(dp44
g2
F0.075
sg3
F0.05
sg4
g5
(g9
S'\xad\xbf\xd4\x83,_\x95\xc1'
p45
tp46
Rp47
sg15
I8
sa(dp48
g2
F0.45
sg3
F0.05
sg4
g5
(g9
S'\xfb`=9\xc6r\x95\xc1'
p49
tp50
Rp51
sg15
I8
sa(dp52
g2
F0.475
sg3
F0.05
sg4
g5
(g9
S'c\x03+\x0f7t\x95\xc1'
p53
tp54
Rp55
sg15
I8
sa(dp56
g2
F0.5
sg3
F0.05
sg4
g5
(g9
S';\x0bm\xaf\xa5u\x95\xc1'
p57
tp58
Rp59
sg15
I8
sa(dp60
g2
F0.025
sg3
F0.075
sg4
g5
(g9
S']\xc2J8<_\x95\xc1'
p61
tp62
Rp63
sg15
I8
sa(dp64
g2
F0.05
sg3
F0.075
sg4
g5
(g9
S'3_\xd2-/_\x95\xc1'
p65
tp66
Rp67
sg15
I8
sa(dp68
g2
F0.075
sg3
F0.075
sg4
g5
(g9
S"\xc2\xb61K'_\x95\xc1"
p69
tp70
Rp71
sg15
I8
sa(dp72
g2
F0.45
sg3
F0.075
sg4
g5
(g9
S'\x9d:\x97\xe7\xc5r\x95\xc1'
p73
tp74
Rp75
sg15
I8
sa(dp76
g2
F0.475
sg3
F0.075
sg4
g5
(g9
S'o7=\xbf6t\x95\xc1'
p77
tp78
Rp79
sg15
I8
sa(dp80
g2
F0.5
sg3
F0.075
sg4
g5
(g9
S'\xa9\x8d\xe6Z\xa5u\x95\xc1'
p81
tp82
Rp83
sg15
I8
sa(dp84
g2
F0.025
sg3
F0.45
sg4
g5
(g9
S'\xa7u\xefe\x85_\x95\xc1'
p85
tp86
Rp87
sg15
I8
sa(dp88
g2
F0.05
sg3
F0.45
sg4
g5
(g9
S'\xfc\xcd\xb4l\xfe_\x95\xc1'
p89
tp90
Rp91
sg15
I8
sa(dp92
g2
F0.075
sg3
F0.45
sg4
g5
(g9
S'V\xca\xe3\xb6\x0f_\x95\xc1'
p93
tp94
Rp95
sg15
I8
sa(dp96
g2
F0.45
sg3
F0.45
sg4
g5
(g9
S'\xa4]\x9a\x08\xeer\x95\xc1'
p97
tp98
Rp99
sg15
I8
sa(dp100
g2
F0.475
sg3
F0.45
sg4
g5
(g9
S'\xf1\xe3\x05\xcb_t\x95\xc1'
p101
tp102
Rp103
sg15
I8
sa(dp104
g2
F0.5
sg3
F0.45
sg4
g5
(g9
S'\xf2w\x7fZ\xcfu\x95\xc1'
p105
tp106
Rp107
sg15
I8
sa(dp108
g2
F0.025
sg3
F0.475
sg4
g5
(g9
S'\xbf\xf6\x938\x8b_\x95\xc1'
p109
tp110
Rp111
sg15
I8
sa(dp112
g2
F0.05
sg3
F0.475
sg4
g5
(g9
S'XRj\xa6\xe6_\x95\xc1'
p113
tp114
Rp115
sg15
I8
sa(dp116
g2
F0.075
sg3
F0.475
sg4
g5
(g9
S'\xa9\xfb\xc8\xb1\x0e_\x95\xc1'
p117
tp118
Rp119
sg15
I8
sa(dp120
g2
F0.45
sg3
F0.475
sg4
g5
(g9
S'\x8e4\n\xd2\xf0r\x95\xc1'
p121
tp122
Rp123
sg15
I8
sa(dp124
g2
F0.475
sg3
F0.475
sg4
g5
(g9
S'\xf3c.\xa6bt\x95\xc1'
p125
tp126
Rp127
sg15
I8
sa(dp128
g2
F0.5
sg3
F0.475
sg4
g5
(g9
S'Nh\xf7F\xd2u\x95\xc1'
p129
tp130
Rp131
sg15
I8
sa(dp132
g2
F0.025
sg3
F0.5
sg4
g5
(g9
S'\xb0\x9e\xed5\x91_\x95\xc1'
p133
tp134
Rp135
sg15
I8
sa(dp136
g2
F0.05
sg3
F0.5
sg4
g5
(g9
S'\xb3\xeel2\xac_\x95\xc1'
p137
tp138
Rp139
sg15
I8
sa(dp140
g2
F0.075
sg3
F0.5
sg4
g5
(g9
S';\xdd\xcc\xcc\r_\x95\xc1'
p141
tp142
Rp143
sg15
I8
sa(dp144
g2
F0.45
sg3
F0.5
sg4
g5
(g9
S'C\xcda\x94\xf3r\x95\xc1'
p145
tp146
Rp147
sg15
I8
sa(dp148
g2
F0.475
sg3
F0.5
sg4
g5
(g9
S'\xeb\xcd=zet\x95\xc1'
p149
tp150
Rp151
sg15
I8
sa(dp152
g2
F0.5
sg3
F0.5
sg4
g5
(g9
S'>\x88U,\xd5u\x95\xc1'
p153
tp154
Rp155
sg15
I8
sa(dp156
g2
F0.025
sg3
F0.025
sg4
g5
(g9
S'\xd1G\x07\x18&P\x95\xc1'
p157
tp158
Rp159
sg15
I9
sa(dp160
g2
F0.05
sg3
F0.025
sg4
g5
(g9
S'\x1d\x89N\xed\xe8P\x95\xc1'
p161
tp162
Rp163
sg15
I9
sa(dp164
g2
F0.075
sg3
F0.025
sg4
g5
(g9
S'X\x07\xcc6,R\x95\xc1'
p165
tp166
Rp167
sg15
I9
sa(dp168
g2
F0.45
sg3
F0.025
sg4
g5
(g9
S's\xbb\xfc\xbcfh\x95\xc1'
p169
tp170
Rp171
sg15
I9
sa(dp172
g2
F0.475
sg3
F0.025
sg4
g5
(g9
S'\xaa\x97\xd6]>j\x95\xc1'
p173
tp174
Rp175
sg15
I9
sa(dp176
g2
F0.5
sg3
F0.025
sg4
g5
(g9
S'm\xcb\xe9\xb1\x0fl\x95\xc1'
p177
tp178
Rp179
sg15
I9
sa(dp180
g2
F0.025
sg3
F0.05
sg4
g5
(g9
S'\x7f\xe52.\x08P\x95\xc1'
p181
tp182
Rp183
sg15
I9
sa(dp184
g2
F0.05
sg3
F0.05
sg4
g5
(g9
S'\xfd^\x86\xf3\xcdP\x95\xc1'
p185
tp186
Rp187
sg15
I9
sa(dp188
g2
F0.075
sg3
F0.05
sg4
g5
(g9
S'-4==\x18R\x95\xc1'
p189
tp190
Rp191
sg15
I9
sa(dp192
g2
F0.45
sg3
F0.05
sg4
g5
(g9
S' K\xc2\x02bh\x95\xc1'
p193
tp194
Rp195
sg15
I9
sa(dp196
g2
F0.475
sg3
F0.05
sg4
g5
(g9
S'h\xb7w\xb09j\x95\xc1'
p197
tp198
Rp199
sg15
I9
sa(dp200
g2
F0.5
sg3
F0.05
sg4
g5
(g9
S'd\xdeD=\x0bl\x95\xc1'
p201
tp202
Rp203
sg15
I9
sa(dp204
g2
F0.025
sg3
F0.075
sg4
g5
(g9
S'\x910\xcey\xefO\x95\xc1'
p205
tp206
Rp207
sg15
I9
sa(dp208
g2
F0.05
sg3
F0.075
sg4
g5
(g9
S'I\xdfT\xf9\xb8P\x95\xc1'
p209
tp210
Rp211
sg15
I9
sa(dp212
g2
F0.075
sg3
F0.075
sg4
g5
(g9
S'\x92\x10\xeb%\x08R\x95\xc1'
p213
tp214
Rp215
sg15
I9
sa(dp216
g2
F0.45
sg3
F0.075
sg4
g5
(g9
S'\xden9uah\x95\xc1'
p217
tp218
Rp219
sg15
I9
sa(dp220
g2
F0.475
sg3
F0.075
sg4
g5
(g9
S'\x94:\xbeQ9j\x95\xc1'
p221
tp222
Rp223
sg15
I9
sa(dp224
g2
F0.5
sg3
F0.075
sg4
g5
(g9
S'\xc4\xc5\xe0\xe8\nl\x95\xc1'
p225
tp226
Rp227
sg15
I9
sa(dp228
g2
F0.025
sg3
F0.45
sg4
g5
(g9
S'h\x82s\xc5\xcaN\x95\xc1'
p229
tp230
Rp231
sg15
I9
sa(dp232
g2
F0.05
sg3
F0.45
sg4
g5
(g9
S'\xec%\xccR\xcbO\x95\xc1'
p233
tp234
Rp235
sg15
I9
sa(dp236
g2
F0.075
sg3
F0.45
sg4
g5
(g9
S'\xde\xfc\x10\x99YQ\x95\xc1'
p237
tp238
Rp239
sg15
I9
sa(dp240
g2
F0.45
sg3
F0.45
sg4
g5
(g9
S'G\x95\xf1\x15\x89h\x95\xc1'
p241
tp242
Rp243
sg15
I9
sa(dp244
g2
F0.475
sg3
F0.45
sg4
g5
(g9
S'\xdb\xe2\x10\xa8bj\x95\xc1'
p245
tp246
Rp247
sg15
I9
sa(dp248
g2
F0.5
sg3
F0.45
sg4
g5
(g9
S'\xd1}P\x866l\x95\xc1'
p249
tp250
Rp251
sg15
I9
sa(dp252
g2
F0.025
sg3
F0.475
sg4
g5
(g9
S'\xe3|\xb7\xb4\xb8N\x95\xc1'
p253
tp254
Rp255
sg15
I9
sa(dp256
g2
F0.05
sg3
F0.475
sg4
g5
(g9
S'\xa4\xdeu\x1a\xbdO\x95\xc1'
p257
tp258
Rp259
sg15
I9
sa(dp260
g2
F0.075
sg3
F0.475
sg4
g5
(g9
S'\xba\xbb\n\xdbNQ\x95\xc1'
p261
tp262
Rp263
sg15
I9
sa(dp264
g2
F0.45
sg3
F0.475
sg4
g5
(g9
S'\xe7\xd5f\xd5\x8bh\x95\xc1'
p265
tp266
Rp267
sg15
I9
sa(dp268
g2
F0.475
sg3
F0.475
sg4
g5
(g9
S'(\x1b\xc3\x8aej\x95\xc1'
p269
tp270
Rp271
sg15
I9
sa(dp272
g2
F0.5
sg3
F0.475
sg4
g5
(g9
S'\x84d\xdc\x9a9l\x95\xc1'
p273
tp274
Rp275
sg15
I9
sa(dp276
g2
F0.025
sg3
F0.5
sg4
g5
(g9
S'5j\xd1\xcb\xa9N\x95\xc1'
p277
tp278
Rp279
sg15
I9
sa(dp280
g2
F0.05
sg3
F0.5
sg4
g5
(g9
S'+dO\x7f\xafO\x95\xc1'
p281
tp282
Rp283
sg15
I9
sa(dp284
g2
F0.075
sg3
F0.5
sg4
g5
(g9
S'SrO\xd0CQ\x95\xc1'
p285
tp286
Rp287
sg15
I9
sa(dp288
g2
F0.45
sg3
F0.5
sg4
g5
(g9
S'=\t\x08\x85\x8eh\x95\xc1'
p289
tp290
Rp291
sg15
I9
sa(dp292
g2
F0.475
sg3
F0.5
sg4
g5
(g9
S'\xf1?\x89_hj\x95\xc1'
p293
tp294
Rp295
sg15
I9
sa(dp296
g2
F0.5
sg3
F0.5
sg4
g5
(g9
S'g5\xaf\xa1<l\x95\xc1'
p297
tp298
Rp299
sg15
I9
sa(dp300
g2
F0.025
sg3
F0.025
sg4
g5
(g9
S'\xdb\xd2\x13\xd5z\\\x95\xc1'
p301
tp302
Rp303
sg15
I10
sa(dp304
g2
F0.05
sg3
F0.025
sg4
g5
(g9
S'\xcbK\xf8\x90\x0e]\x95\xc1'
p305
tp306
Rp307
sg15
I10
sa(dp308
g2
F0.075
sg3
F0.025
sg4
g5
(g9
S'\x9c\x97\x9f\x9e\xc8]\x95\xc1'
p309
tp310
Rp311
sg15
I10
sa(dp312
g2
F0.45
sg3
F0.025
sg4
g5
(g9
S'C\x8f\xd0\xa7\xc6t\x95\xc1'
p313
tp314
Rp315
sg15
I10
sa(dp316
g2
F0.475
sg3
F0.025
sg4
g5
(g9
S'W\xcaxyXv\x95\xc1'
p317
tp318
Rp319
sg15
I10
sa(dp320
g2
F0.5
sg3
F0.025
sg4
g5
(g9
S'~|\x14J\xe8w\x95\xc1'
p321
tp322
Rp323
sg15
I10
sa(dp324
g2
F0.025
sg3
F0.05
sg4
g5
(g9
S'#\xd9\xe9\x7fw\\\x95\xc1'
p325
tp326
Rp327
sg15
I10
sa(dp328
g2
F0.05
sg3
F0.05
sg4
g5
(g9
S'#\x19e\xfb\x0b]\x95\xc1'
p329
tp330
Rp331
sg15
I10
sa(dp332
g2
F0.075
sg3
F0.05
sg4
g5
(g9
S'_\x9e\x05&\xc6]\x95\xc1'
p333
tp334
Rp335
sg15
I10
sa(dp336
g2
F0.45
sg3
F0.05
sg4
g5
(g9
S'\xde\xc6\x92\xe3\xc5t\x95\xc1'
p337
tp338
Rp339
sg15
I10
sa(dp340
g2
F0.475
sg3
F0.05
sg4
g5
(g9
S'f&\x00\xc6Wv\x95\xc1'
p341
tp342
Rp343
sg15
I10
sa(dp344
g2
F0.5
sg3
F0.05
sg4
g5
(g9
S'\x96\xe1\x85~\xe7w\x95\xc1'
p345
tp346
Rp347
sg15
I10
sa(dp348
g2
F0.025
sg3
F0.075
sg4
g5
(g9
S'Og*\xbex\\\x95\xc1'
p349
tp350
Rp351
sg15
I10
sa(dp352
g2
F0.05
sg3
F0.075
sg4
g5
(g9
S'\xf8m\xa4\xb9\r]\x95\xc1'
p353
tp354
Rp355
sg15
I10
sa(dp356
g2
F0.075
sg3
F0.075
sg4
g5
(g9
S'\xff\xc3\x16\x1e\xc8]\x95\xc1'
p357
tp358
Rp359
sg15
I10
sa(dp360
g2
F0.45
sg3
F0.075
sg4
g5
(g9
S'\x96\xbd\x16\xfe\xc8t\x95\xc1'
p361
tp362
Rp363
sg15
I10
sa(dp364
g2
F0.475
sg3
F0.075
sg4
g5
(g9
S'\xdb\x0bI\xebZv\x95\xc1'
p365
tp366
Rp367
sg15
I10
sa(dp368
g2
F0.5
sg3
F0.075
sg4
g5
(g9
S'\xdbR~\xc7\xeaw\x95\xc1'
p369
tp370
Rp371
sg15
I10
sa(dp372
g2
F0.025
sg3
F0.45
sg4
g5
(g9
S'i\x01\x9d\xb8\xbd\\\x95\xc1'
p373
tp374
Rp375
sg15
I10
sa(dp376
g2
F0.05
sg3
F0.45
sg4
g5
(g9
S'\xedN\xd3\xd1V]\x95\xc1'
p377
tp378
Rp379
sg15
I10
sa(dp380
g2
F0.075
sg3
F0.45
sg4
g5
(g9
S'~\x96-a\x14^\x95\xc1'
p381
tp382
Rp383
sg15
I10
sa(dp384
g2
F0.45
sg3
F0.45
sg4
g5
(g9
S'\xea\xaa\xa4\xb7\x1eu\x95\xc1'
p385
tp386
Rp387
sg15
I10
sa(dp388
g2
F0.475
sg3
F0.45
sg4
g5
(g9
S'\n\xc7E:\xb1v\x95\xc1'
p389
tp390
Rp391
sg15
I10
sa(dp392
g2
F0.5
sg3
F0.45
sg4
g5
(g9
S'\xed\x0b\xd5\xc0Ax\x95\xc1'
p393
tp394
Rp395
sg15
I10
sa(dp396
g2
F0.025
sg3
F0.475
sg4
g5
(g9
S'\x8e,\x1c\xa6\xc1\\\x95\xc1'
p397
tp398
Rp399
sg15
I10
sa(dp400
g2
F0.05
sg3
F0.475
sg4
g5
(g9
S'\x1ab\xd5{[]\x95\xc1'
p401
tp402
Rp403
sg15
I10
sa(dp404
g2
F0.075
sg3
F0.475
sg4
g5
(g9
S'\xb8_v\x1d\x19^\x95\xc1'
p405
tp406
Rp407
sg15
I10
sa(dp408
g2
F0.45
sg3
F0.475
sg4
g5
(g9
S'\x82\x8f\x96\xf4#u\x95\xc1'
p409
tp410
Rp411
sg15
I10
sa(dp412
g2
F0.475
sg3
F0.475
sg4
g5
(g9
S'\x87\xf1\xab|\xb6v\x95\xc1'
p413
tp414
Rp415
sg15
I10
sa(dp416
g2
F0.5
sg3
F0.475
sg4
g5
(g9
S'qW\x1c\tGx\x95\xc1'
p417
tp418
Rp419
sg15
I10
sa(dp420
g2
F0.025
sg3
F0.5
sg4
g5
(g9
S'n|\xde\xcb\xc5\\\x95\xc1'
p421
tp422
Rp423
sg15
I10
sa(dp424
g2
F0.05
sg3
F0.5
sg4
g5
(g9
S'\x99\xea<\xf8_]\x95\xc1'
p425
tp426
Rp427
sg15
I10
sa(dp428
g2
F0.075
sg3
F0.5
sg4
g5
(g9
S'p\x9dn\xc3\x1d^\x95\xc1'
p429
tp430
Rp431
sg15
I10
sa(dp432
g2
F0.45
sg3
F0.5
sg4
g5
(g9
S'~9\xfc\x19)u\x95\xc1'
p433
tp434
Rp435
sg15
I10
sa(dp436
g2
F0.475
sg3
F0.5
sg4
g5
(g9
S'L*T\xa7\xbbv\x95\xc1'
p437
tp438
Rp439
sg15
I10
sa(dp440
g2
F0.5
sg3
F0.5
sg4
g5
(g9
S'\x86\x80[9Lx\x95\xc1'
p441
tp442
Rp443
sg15
I10
sa(dp444
g2
F0.025
sg3
F0.025
sg4
g5
(g9
S"\x7fY'\xdb\xd5:\x95\xc1"
p445
tp446
Rp447
sg15
I11
sa(dp448
g2
F0.05
sg3
F0.025
sg4
g5
(g9
S':\xc6\x99\xb7\xf5:\x95\xc1'
p449
tp450
Rp451
sg15
I11
sa(dp452
g2
F0.075
sg3
F0.025
sg4
g5
(g9
S'N5\x8f\x84\x91;\x95\xc1'
p453
tp454
Rp455
sg15
I11
sa(dp456
g2
F0.45
sg3
F0.025
sg4
g5
(g9
S'\xf4\xa1\x08\xeb6T\x95\xc1'
p457
tp458
Rp459
sg15
I11
sa(dp460
g2
F0.475
sg3
F0.025
sg4
g5
(g9
S'\x8d\xd4\xeb\x01\x01V\x95\xc1'
p461
tp462
Rp463
sg15
I11
sa(dp464
g2
F0.5
sg3
F0.025
sg4
g5
(g9
S'\x8f\xb6u\xa5\xc9W\x95\xc1'
p465
tp466
Rp467
sg15
I11
sa(dp468
g2
F0.025
sg3
F0.05
sg4
g5
(g9
S"'5w\xc6\xd0:\x95\xc1"
p469
tp470
Rp471
sg15
I11
sa(dp472
g2
F0.05
sg3
F0.05
sg4
g5
(g9
S'gF\xc6\xa0\xf2:\x95\xc1'
p473
tp474
Rp475
sg15
I11
sa(dp476
g2
F0.075
sg3
F0.05
sg4
g5
(g9
S'\x9b\x14\xe0\xc2\x8e;\x95\xc1'
p477
tp478
Rp479
sg15
I11
sa(dp480
g2
F0.45
sg3
F0.05
sg4
g5
(g9
S'\xe1\xaf\x05(6T\x95\xc1'
p481
tp482
Rp483
sg15
I11
sa(dp484
g2
F0.475
sg3
F0.05
sg4
g5
(g9
S'\xab\x7f\x97C\x00V\x95\xc1'
p485
tp486
Rp487
sg15
I11
sa(dp488
g2
F0.5
sg3
F0.05
sg4
g5
(g9
S'\x02n\xd8\xfc\xc8W\x95\xc1'
p489
tp490
Rp491
sg15
I11
sa(dp492
g2
F0.025
sg3
F0.075
sg4
g5
(g9
S'\x0e^l\xba\xd0:\x95\xc1'
p493
tp494
Rp495
sg15
I11
sa(dp496
g2
F0.05
sg3
F0.075
sg4
g5
(g9
S'[S\xee\x0b\xf4:\x95\xc1'
p497
tp498
Rp499
sg15
I11
sa(dp500
g2
F0.075
sg3
F0.075
sg4
g5
(g9
S'\x97\xb7o\x9a\x90;\x95\xc1'
p501
tp502
Rp503
sg15
I11
sa(dp504
g2
F0.45
sg3
F0.075
sg4
g5
(g9
S'\x8b\xc4\xc0s9T\x95\xc1'
p505
tp506
Rp507
sg15
I11
sa(dp508
g2
F0.475
sg3
F0.075
sg4
g5
(g9
S'+};\x8c\x03V\x95\xc1'
p509
tp510
Rp511
sg15
I11
sa(dp512
g2
F0.5
sg3
F0.075
sg4
g5
(g9
S'\x87\x10\xc9I\xccW\x95\xc1'
p513
tp514
Rp515
sg15
I11
sa(dp516
g2
F0.025
sg3
F0.45
sg4
g5
(g9
S'M\x97\x9bH\x01;\x95\xc1'
p517
tp518
Rp519
sg15
I11
sa(dp520
g2
F0.05
sg3
F0.45
sg4
g5
(g9
S'K+\x05 :;\x95\xc1'
p521
tp522
Rp523
sg15
I11
sa(dp524
g2
F0.075
sg3
F0.45
sg4
g5
(g9
S'\xf7(\x08\xa2\xdb;\x95\xc1'
p525
tp526
Rp527
sg15
I11
sa(dp528
g2
F0.45
sg3
F0.45
sg4
g5
(g9
S'\xf4=\x14f\x91T\x95\xc1'
p529
tp530
Rp531
sg15
I11
sa(dp532
g2
F0.475
sg3
F0.45
sg4
g5
(g9
S'\xda\xf2\r\xe5[V\x95\xc1'
p533
tp534
Rp535
sg15
I11
sa(dp536
g2
F0.5
sg3
F0.45
sg4
g5
(g9
S'\xe2[\xec\xfd$X\x95\xc1'
p537
tp538
Rp539
sg15
I11
sa(dp540
g2
F0.025
sg3
F0.475
sg4
g5
(g9
S'\xa4\x8d\xc9\x8a\x05;\x95\xc1'
p541
tp542
Rp543
sg15
I11
sa(dp544
g2
F0.05
sg3
F0.475
sg4
g5
(g9
S'\xc6[\x12\x0b?;\x95\xc1'
p545
tp546
Rp547
sg15
I11
sa(dp548
g2
F0.075
sg3
F0.475
sg4
g5
(g9
S'c\x0b\xec_\xe0;\x95\xc1'
p549
tp550
Rp551
sg15
I11
sa(dp552
g2
F0.45
sg3
F0.475
sg4
g5
(g9
S'u\xfc4#\x97T\x95\xc1'
p553
tp554
Rp555
sg15
I11
sa(dp556
g2
F0.475
sg3
F0.475
sg4
g5
(g9
S'\xfd\x8e\t\xa7aV\x95\xc1'
p557
tp558
Rp559
sg15
I11
sa(dp560
g2
F0.5
sg3
F0.475
sg4
g5
(g9
S'~v\xb5\xc4*X\x95\xc1'
p561
tp562
Rp563
sg15
I11
sa(dp564
g2
F0.025
sg3
F0.5
sg4
g5
(g9
S'\xad\xc6Gf\t;\x95\xc1'
p565
tp566
Rp567
sg15
I11
sa(dp568
g2
F0.05
sg3
F0.5
sg4
g5
(g9
S'\xdc\x15r\xe1C;\x95\xc1'
p569
tp570
Rp571
sg15
I11
sa(dp572
g2
F0.075
sg3
F0.5
sg4
g5
(g9
S'\xc6\x1b\xb1,\xe5;\x95\xc1'
p573
tp574
Rp575
sg15
I11
sa(dp576
g2
F0.45
sg3
F0.5
sg4
g5
(g9
S'P\xc5\xf9\xcf\x9cT\x95\xc1'
p577
tp578
Rp579
sg15
I11
sa(dp580
g2
F0.475
sg3
F0.5
sg4
g5
(g9
S'o]\x9aXgV\x95\xc1'
p581
tp582
Rp583
sg15
I11
sa(dp584
g2
F0.5
sg3
F0.5
sg4
g5
(g9
S'O\xea\x11{0X\x95\xc1'
p585
tp586
Rp587
sg15
I11
sa(dp588
g2
F0.025
sg3
F0.025
sg4
g5
(g9
S'\xd7\xd5|i\xd0&\x95\xc1'
p589
tp590
Rp591
sg15
I12
sa(dp592
g2
F0.05
sg3
F0.025
sg4
g5
(g9
S'\x85\xa4\xec\x0b\x99+\x95\xc1'
p593
tp594
Rp595
sg15
I12
sa(dp596
g2
F0.075
sg3
F0.025
sg4
g5
(g9
S'D\x85~\xf5\xe7,\x95\xc1'
p597
tp598
Rp599
sg15
I12
sa(dp600
g2
F0.45
sg3
F0.025
sg4
g5
(g9
S'\x08\xba\x96+\xe1F\x95\xc1'
p601
tp602
Rp603
sg15
I12
sa(dp604
g2
F0.475
sg3
F0.025
sg4
g5
(g9
S'\x0c\x9b\xc89\xc1H\x95\xc1'
p605
tp606
Rp607
sg15
I12
sa(dp608
g2
F0.5
sg3
F0.025
sg4
g5
(g9
S'R\x84\xe1\x83\xa3J\x95\xc1'
p609
tp610
Rp611
sg15
I12
sa(dp612
g2
F0.025
sg3
F0.05
sg4
g5
(g9
S'\x90\xff\xb4M\xca&\x95\xc1'
p613
tp614
Rp615
sg15
I12
sa(dp616
g2
F0.05
sg3
F0.05
sg4
g5
(g9
S'\xbb\x89\xc2f\x96+\x95\xc1'
p617
tp618
Rp619
sg15
I12
sa(dp620
g2
F0.075
sg3
F0.05
sg4
g5
(g9
S'\x04\x11`h\xe5,\x95\xc1'
p621
tp622
Rp623
sg15
I12
sa(dp624
g2
F0.45
sg3
F0.05
sg4
g5
(g9
S'\xd0\xe4\x02\xfa\xdeF\x95\xc1'
p625
tp626
Rp627
sg15
I12
sa(dp628
g2
F0.475
sg3
F0.05
sg4
g5
(g9
S'\xf7\xd8\x19_\xbfH\x95\xc1'
p629
tp630
Rp631
sg15
I12
sa(dp632
g2
F0.5
sg3
F0.05
sg4
g5
(g9
S'\x93\xc9Q\x96\xa1J\x95\xc1'
p633
tp634
Rp635
sg15
I12
sa(dp636
g2
F0.025
sg3
F0.075
sg4
g5
(g9
S'\xf5\xf3\xe3l\xd1&\x95\xc1'
p637
tp638
Rp639
sg15
I12
sa(dp640
g2
F0.05
sg3
F0.075
sg4
g5
(g9
S'\xf9\x87\x90\xbc\x98+\x95\xc1'
p641
tp642
Rp643
sg15
I12
sa(dp644
g2
F0.075
sg3
F0.075
sg4
g5
(g9
S'\xb3\xc9j\xa8\xe7,\x95\xc1'
p645
tp646
Rp647
sg15
I12
sa(dp648
g2
F0.45
sg3
F0.075
sg4
g5
(g9
S'\xf1\xc50+\xe2F\x95\xc1'
p649
tp650
Rp651
sg15
I12
sa(dp652
g2
F0.475
sg3
F0.075
sg4
g5
(g9
S'P_\xe6\xb5\xc2H\x95\xc1'
p653
tp654
Rp655
sg15
I12
sa(dp656
g2
F0.5
sg3
F0.075
sg4
g5
(g9
S'K\x7f$I\xa5J\x95\xc1'
p657
tp658
Rp659
sg15
I12
sa(dp660
g2
F0.025
sg3
F0.45
sg4
g5
(g9
S'\x8f\xdd\x97q\xf1&\x95\xc1'
p661
tp662
Rp663
sg15
I12
sa(dp664
g2
F0.05
sg3
F0.45
sg4
g5
(g9
S'LL\xe1Z\xe7+\x95\xc1'
p665
tp666
Rp667
sg15
I12
sa(dp668
g2
F0.075
sg3
F0.45
sg4
g5
(g9
S'\xb29\xdc?.-\x95\xc1'
p669
tp670
Rp671
sg15
I12
sa(dp672
g2
F0.45
sg3
F0.45
sg4
g5
(g9
S'\xaa\xbc\x7f\xcb-G\x95\xc1'
p673
tp674
Rp675
sg15
I12
sa(dp676
g2
F0.475
sg3
F0.45
sg4
g5
(g9
S'\xb4\x9f\xf0\\\x13I\x95\xc1'
p677
tp678
Rp679
sg15
I12
sa(dp680
g2
F0.5
sg3
F0.45
sg4
g5
(g9
S'"\xeaC\x14\xfaJ\x95\xc1'
p681
tp682
Rp683
sg15
I12
sa(dp684
g2
F0.025
sg3
F0.475
sg4
g5
(g9
S'\xd4Y\x847\xf7&\x95\xc1'
p685
tp686
Rp687
sg15
I12
sa(dp688
g2
F0.05
sg3
F0.475
sg4
g5
(g9
S'\xed\x96\xde\x90\xeb+\x95\xc1'
p689
tp690
Rp691
sg15
I12
sa(dp692
g2
F0.075
sg3
F0.475
sg4
g5
(g9
S'\xe4\xe8\x85\xb72-\x95\xc1'
p693
tp694
Rp695
sg15
I12
sa(dp696
g2
F0.45
sg3
F0.475
sg4
g5
(g9
S'\xbc/}03G\x95\xc1'
p697
tp698
Rp699
sg15
I12
sa(dp700
g2
F0.475
sg3
F0.475
sg4
g5
(g9
S'g/\xe3\x14\x19I\x95\xc1'
p701
tp702
Rp703
sg15
I12
sa(dp704
g2
F0.5
sg3
F0.475
sg4
g5
(g9
S'\\\xa8\xfa\x12\x00K\x95\xc1'
p705
tp706
Rp707
sg15
I12
sa(dp708
g2
F0.025
sg3
F0.5
sg4
g5
(g9
S'\xd2\xdd\xe3H\xfa&\x95\xc1'
p709
tp710
Rp711
sg15
I12
sa(dp712
g2
F0.05
sg3
F0.5
sg4
g5
(g9
S'Q\xf9\xdc\x88\xf0+\x95\xc1'
p713
tp714
Rp715
sg15
I12
sa(dp716
g2
F0.075
sg3
F0.5
sg4
g5
(g9
S',\xb9Z)7-\x95\xc1'
p717
tp718
Rp719
sg15
I12
sa(dp720
g2
F0.45
sg3
F0.5
sg4
g5
(g9
S'\x93\xae\xe9\xc68G\x95\xc1'
p721
tp722
Rp723
sg15
I12
sa(dp724
g2
F0.475
sg3
F0.5
sg4
g5
(g9
S'\x02\xe4\x1a\xfb\x1eI\x95\xc1'
p725
tp726
Rp727
sg15
I12
sa(dp728
g2
F0.5
sg3
F0.5
sg4
g5
(g9
S'\xbe\xf0[>\x06K\x95\xc1'
p729
tp730
Rp731
sg15
I12
sa(dp732
g2
F0.025
sg3
F0.025
sg4
g5
(g9
S'\xb9\xafG\xac\x08\t\x95\xc1'
p733
tp734
Rp735
sg15
I13
sa(dp736
g2
F0.05
sg3
F0.025
sg4
g5
(g9
S'F\xdc\x9e\xbcc\x0e\x95\xc1'
p737
tp738
Rp739
sg15
I13
sa(dp740
g2
F0.075
sg3
F0.025
sg4
g5
(g9
S'\xb4\x87\xc2#\xf1\x0f\x95\xc1'
p741
tp742
Rp743
sg15
I13
sa(dp744
g2
F0.45
sg3
F0.025
sg4
g5
(g9
S'\x97:\x17Q\xbb)\x95\xc1'
p745
tp746
Rp747
sg15
I13
sa(dp748
g2
F0.475
sg3
F0.025
sg4
g5
(g9
S'\xd1%Q\n\xff+\x95\xc1'
p749
tp750
Rp751
sg15
I13
sa(dp752
g2
F0.5
sg3
F0.025
sg4
g5
(g9
S'\xdf\xb5\r\xf1C.\x95\xc1'
p753
tp754
Rp755
sg15
I13
sa(dp756
g2
F0.025
sg3
F0.05
sg4
g5
(g9
S'\t\xf2\x12\xf0\x02\t\x95\xc1'
p757
tp758
Rp759
sg15
I13
sa(dp760
g2
F0.05
sg3
F0.05
sg4
g5
(g9
S'\xf6\x99\xfb<a\x0e\x95\xc1'
p761
tp762
Rp763
sg15
I13
sa(dp764
g2
F0.075
sg3
F0.05
sg4
g5
(g9
S'u\xbf\xa4Y\xef\x0f\x95\xc1'
p765
tp766
Rp767
sg15
I13
sa(dp768
g2
F0.45
sg3
F0.05
sg4
g5
(g9
S'@l\xbc\\\xb9)\x95\xc1'
p769
tp770
Rp771
sg15
I13
sa(dp772
g2
F0.475
sg3
F0.05
sg4
g5
(g9
S'\xf9@V\x11\xfd+\x95\xc1'
p773
tp774
Rp775
sg15
I13
sa(dp776
g2
F0.5
sg3
F0.05
sg4
g5
(g9
S',8>\xd6A.\x95\xc1'
p777
tp778
Rp779
sg15
I13
sa(dp780
g2
F0.025
sg3
F0.075
sg4
g5
(g9
S'\x8f\x9cm\xd7\xfe\x08\x95\xc1'
p781
tp782
Rp783
sg15
I13
sa(dp784
g2
F0.05
sg3
F0.075
sg4
g5
(g9
S'\xd2R\xd6\x1ad\x0e\x95\xc1'
p785
tp786
Rp787
sg15
I13
sa(dp788
g2
F0.075
sg3
F0.075
sg4
g5
(g9
S'\x1cPS\x99\xf1\x0f\x95\xc1'
p789
tp790
Rp791
sg15
I13
sa(dp792
g2
F0.45
sg3
F0.075
sg4
g5
(g9
S'\xf4\xa4\xf8\xe8\xbb)\x95\xc1'
p793
tp794
Rp795
sg15
I13
sa(dp796
g2
F0.475
sg3
F0.075
sg4
g5
(g9
S'_D\xa3\xa0\xff+\x95\xc1'
p797
tp798
Rp799
sg15
I13
sa(dp800
g2
F0.5
sg3
F0.075
sg4
g5
(g9
S'\r\n\x94iD.\x95\xc1'
p801
tp802
Rp803
sg15
I13
sa(dp804
g2
F0.025
sg3
F0.45
sg4
g5
(g9
S'\x14P\xee\xc87\t\x95\xc1'
p805
tp806
Rp807
sg15
I13
sa(dp808
g2
F0.05
sg3
F0.45
sg4
g5
(g9
S'\x9a\xe8\xde\xa5\xc3\x0e\x95\xc1'
p809
tp810
Rp811
sg15
I13
sa(dp812
g2
F0.075
sg3
F0.45
sg4
g5
(g9
S'\xef\xb1\x93\xc7S\x10\x95\xc1'
p813
tp814
Rp815
sg15
I13
sa(dp816
g2
F0.45
sg3
F0.45
sg4
g5
(g9
S'\xe5}N7\r*\x95\xc1'
p817
tp818
Rp819
sg15
I13
sa(dp820
g2
F0.475
sg3
F0.45
sg4
g5
(g9
S'\xf6\xd1\x967P,\x95\xc1'
p821
tp822
Rp823
sg15
I13
sa(dp824
g2
F0.5
sg3
F0.45
sg4
g5
(g9
S'\x19\xea\xc2\xc1\x94.\x95\xc1'
p825
tp826
Rp827
sg15
I13
sa(dp828
g2
F0.025
sg3
F0.475
sg4
g5
(g9
S"\xd1\xf7\xe0'>\t\x95\xc1"
p829
tp830
Rp831
sg15
I13
sa(dp832
g2
F0.05
sg3
F0.475
sg4
g5
(g9
S'\x85\xb9\xc6\x92\xc9\x0e\x95\xc1'
p833
tp834
Rp835
sg15
I13
sa(dp836
g2
F0.075
sg3
F0.475
sg4
g5
(g9
S'"\xf4K\xa0Z\x10\x95\xc1'
p837
tp838
Rp839
sg15
I13
sa(dp840
g2
F0.45
sg3
F0.475
sg4
g5
(g9
S'\t\x8d\xbfD\x11*\x95\xc1'
p841
tp842
Rp843
sg15
I13
sa(dp844
g2
F0.475
sg3
F0.475
sg4
g5
(g9
S'\xefv\xd2<T,\x95\xc1'
p845
tp846
Rp847
sg15
I13
sa(dp848
g2
F0.5
sg3
F0.475
sg4
g5
(g9
S'Q\xf8\xd4\xc1\x98.\x95\xc1'
p849
tp850
Rp851
sg15
I13
sa(dp852
g2
F0.025
sg3
F0.5
sg4
g5
(g9
S'\xcah\x8c\x99A\t\x95\xc1'
p853
tp854
Rp855
sg15
I13
sa(dp856
g2
F0.05
sg3
F0.5
sg4
g5
(g9
S'\x03\xf11\xdd\xcf\x0e\x95\xc1'
p857
tp858
Rp859
sg15
I13
sa(dp860
g2
F0.075
sg3
F0.5
sg4
g5
(g9
S'`D;]a\x10\x95\xc1'
p861
tp862
Rp863
sg15
I13
sa(dp864
g2
F0.45
sg3
F0.5
sg4
g5
(g9
S'3V-\x11\x15*\x95\xc1'
p865
tp866
Rp867
sg15
I13
sa(dp868
g2
F0.475
sg3
F0.5
sg4
g5
(g9
S'W\t\xe0\xfeW,\x95\xc1'
p869
tp870
Rp871
sg15
I13
sa(dp872
g2
F0.5
sg3
F0.5
sg4
g5
(g9
S'\x1e\xae\xae}\x9c.\x95\xc1'
p873
tp874
Rp875
sg15
I13
sa(dp876
g2
F0.025
sg3
F0.025
sg4
g5
(g9
S'\x98\xe2\x1ers\x0e\x95\xc1'
p877
tp878
Rp879
sg15
I14
sa(dp880
g2
F0.05
sg3
F0.025
sg4
g5
(g9
S'B\xc4W|m\x12\x95\xc1'
p881
tp882
Rp883
sg15
I14
sa(dp884
g2
F0.075
sg3
F0.025
sg4
g5
(g9
S'Z+\xf8\xa6\xae\x13\x95\xc1'
p885
tp886
Rp887
sg15
I14
sa(dp888
g2
F0.45
sg3
F0.025
sg4
g5
(g9
S'\x96\xd7\x0e\xf4.3\x95\xc1'
p889
tp890
Rp891
sg15
I14
sa(dp892
g2
F0.475
sg3
F0.025
sg4
g5
(g9
S'5e\x00\xb4o5\x95\xc1'
p893
tp894
Rp895
sg15
I14
sa(dp896
g2
F0.5
sg3
F0.025
sg4
g5
(g9
S'PE\xe3\xb9\xae7\x95\xc1'
p897
tp898
Rp899
sg15
I14
sa(dp900
g2
F0.025
sg3
F0.05
sg4
g5
(g9
S'\xaaG*\x94y\x0e\x95\xc1'
p901
tp902
Rp903
sg15
I14
sa(dp904
g2
F0.05
sg3
F0.05
sg4
g5
(g9
S'\xeaD\xed\x89w\x12\x95\xc1'
p905
tp906
Rp907
sg15
I14
sa(dp908
g2
F0.075
sg3
F0.05
sg4
g5
(g9
S'@s+\xa2\xb8\x13\x95\xc1'
p909
tp910
Rp911
sg15
I14
sa(dp912
g2
F0.45
sg3
F0.05
sg4
g5
(g9
S'i\x12\xcc*93\x95\xc1'
p913
tp914
Rp915
sg15
I14
sa(dp916
g2
F0.475
sg3
F0.05
sg4
g5
(g9
S'\xb8n2\xfcy5\x95\xc1'
p917
tp918
Rp919
sg15
I14
sa(dp920
g2
F0.5
sg3
F0.05
sg4
g5
(g9
S'\xba\xee+\xb4\xb87\x95\xc1'
p921
tp922
Rp923
sg15
I14
sa(dp924
g2
F0.025
sg3
F0.075
sg4
g5
(g9
S'\xc1u\xe8\x80~\x0e\x95\xc1'
p925
tp926
Rp927
sg15
I14
sa(dp928
g2
F0.05
sg3
F0.075
sg4
g5
(g9
S'c@\xe3\xbd\x86\x12\x95\xc1'
p929
tp930
Rp931
sg15
I14
sa(dp932
g2
F0.075
sg3
F0.075
sg4
g5
(g9
S'\xb38vJ\xc8\x13\x95\xc1'
p933
tp934
Rp935
sg15
I14
sa(dp936
g2
F0.45
sg3
F0.075
sg4
g5
(g9
S'\xa1$\x1d\xf2G3\x95\xc1'
p937
tp938
Rp939
sg15
I14
sa(dp940
g2
F0.475
sg3
F0.075
sg4
g5
(g9
S'\x9d\xaf\xf3g\x885\x95\xc1'
p941
tp942
Rp943
sg15
I14
sa(dp944
g2
F0.5
sg3
F0.075
sg4
g5
(g9
S'a\xcay\xe6\xc67\x95\xc1'
p945
tp946
Rp947
sg15
I14
sa(dp948
g2
F0.025
sg3
F0.45
sg4
g5
(g9
S'$\t\xf0@\xb1\x0f\x95\xc1'
p949
tp950
Rp951
sg15
I14
sa(dp952
g2
F0.05
sg3
F0.45
sg4
g5
(g9
S'\xf2]\xd1}\xdc\x13\x95\xc1'
p953
tp954
Rp955
sg15
I14
sa(dp956
g2
F0.075
sg3
F0.45
sg4
g5
(g9
S'\x80\xd9\xe5\xa4\x17\x15\x95\xc1'
p957
tp958
Rp959
sg15
I14
sa(dp960
g2
F0.45
sg3
F0.45
sg4
g5
(g9
S'W\xf8\x14\xd0]4\x95\xc1'
p961
tp962
Rp963
sg15
I14
sa(dp964
g2
F0.475
sg3
F0.45
sg4
g5
(g9
S'\x19\xee\x05V\x986\x95\xc1'
p965
tp966
Rp967
sg15
I14
sa(dp968
g2
F0.5
sg3
F0.45
sg4
g5
(g9
S'u|\x89:\xd28\x95\xc1'
p969
tp970
Rp971
sg15
I14
sa(dp972
g2
F0.025
sg3
F0.475
sg4
g5
(g9
S'9Q\x8a9\xc8\x0f\x95\xc1'
p973
tp974
Rp975
sg15
I14
sa(dp976
g2
F0.05
sg3
F0.475
sg4
g5
(g9
S'3\xe6\xe6M\xf7\x13\x95\xc1'
p977
tp978
Rp979
sg15
I14
sa(dp980
g2
F0.075
sg3
F0.475
sg4
g5
(g9
S'\xe1\x11\x92!1\x15\x95\xc1'
p981
tp982
Rp983
sg15
I14
sa(dp984
g2
F0.45
sg3
F0.475
sg4
g5
(g9
S'\x81]\xe07q4\x95\xc1'
p985
tp986
Rp987
sg15
I14
sa(dp988
g2
F0.475
sg3
F0.475
sg4
g5
(g9
S'\xe3j\r5\xab6\x95\xc1'
p989
tp990
Rp991
sg15
I14
sa(dp992
g2
F0.5
sg3
F0.475
sg4
g5
(g9
S'\xdaj$\xb6\xe48\x95\xc1'
p993
tp994
Rp995
sg15
I14
sa(dp996
g2
F0.025
sg3
F0.5
sg4
g5
(g9
S'\x8e\x94\xe3\xd4\xde\x0f\x95\xc1'
p997
tp998
Rp999
sg15
I14
sa(dp1000
g2
F0.05
sg3
F0.5
sg4
g5
(g9
S'YEx\xeb\x12\x14\x95\xc1'
p1001
tp1002
Rp1003
sg15
I14
sa(dp1004
g2
F0.075
sg3
F0.5
sg4
g5
(g9
S',^\xb29K\x15\x95\xc1'
p1005
tp1006
Rp1007
sg15
I14
sa(dp1008
g2
F0.45
sg3
F0.5
sg4
g5
(g9
S'\xa4\xca\x00\xcd\x844\x95\xc1'
p1009
tp1010
Rp1011
sg15
I14
sa(dp1012
g2
F0.475
sg3
F0.5
sg4
g5
(g9
S'\x1dj\xbe9\xbe6\x95\xc1'
p1013
tp1014
Rp1015
sg15
I14
sa(dp1016
g2
F0.5
sg3
F0.5
sg4
g5
(g9
S'\xa2\xf10R\xf78\x95\xc1'
p1017
tp1018
Rp1019
sg15
I14
sa(dp1020
g2
F0.025
sg3
F0.025
sg4
g5
(g9
S'\x12\xfe\x93\xd7\xaf\t\x95\xc1'
p1021
tp1022
Rp1023
sg15
I15
sa(dp1024
g2
F0.05
sg3
F0.025
sg4
g5
(g9
S'<\xd9\x8f\x10\x1d\n\x95\xc1'
p1025
tp1026
Rp1027
sg15
I15
sa(dp1028
g2
F0.075
sg3
F0.025
sg4
g5
(g9
S'\x00\xa7e)\x96\x0b\x95\xc1'
p1029
tp1030
Rp1031
sg15
I15
sa(dp1032
g2
F0.45
sg3
F0.025
sg4
g5
(g9
S'\x9f\xae\xd84\x023\x95\xc1'
p1033
tp1034
Rp1035
sg15
I15
sa(dp1036
g2
F0.475
sg3
F0.025
sg4
g5
(g9
S'\xda\x90<\xc335\x95\xc1'
p1037
tp1038
Rp1039
sg15
I15
sa(dp1040
g2
F0.5
sg3
F0.025
sg4
g5
(g9
S'\xff:"\'e7\x95\xc1'
p1041
tp1042
Rp1043
sg15
I15
sa(dp1044
g2
F0.025
sg3
F0.05
sg4
g5
(g9
S'\x1c\xa5\x06\xe4\xaa\t\x95\xc1'
p1045
tp1046
Rp1047
sg15
I15
sa(dp1048
g2
F0.05
sg3
F0.05
sg4
g5
(g9
S'\xf0]MC\x19\n\x95\xc1'
p1049
tp1050
Rp1051
sg15
I15
sa(dp1052
g2
F0.075
sg3
F0.05
sg4
g5
(g9
S'q\xb6\x97\x0b\x93\x0b\x95\xc1'
p1053
tp1054
Rp1055
sg15
I15
sa(dp1056
g2
F0.45
sg3
F0.05
sg4
g5
(g9
S'\xea\x0b\xfc\x85\x023\x95\xc1'
p1057
tp1058
Rp1059
sg15
I15
sa(dp1060
g2
F0.475
sg3
F0.05
sg4
g5
(g9
S'C\x84K\xee35\x95\xc1'
p1061
tp1062
Rp1063
sg15
I15
sa(dp1064
g2
F0.5
sg3
F0.05
sg4
g5
(g9
S'd&<Ke7\x95\xc1'
p1065
tp1066
Rp1067
sg15
I15
sa(dp1068
g2
F0.025
sg3
F0.075
sg4
g5
(g9
S'\xc93\x9e\r\xab\t\x95\xc1'
p1069
tp1070
Rp1071
sg15
I15
sa(dp1072
g2
F0.05
sg3
F0.075
sg4
g5
(g9
S'\xf6\xa1_\x90\x1a\n\x95\xc1'
p1073
tp1074
Rp1075
sg15
I15
sa(dp1076
g2
F0.075
sg3
F0.075
sg4
g5
(g9
S'\xd6\xb2+f\x95\x0b\x95\xc1'
p1077
tp1078
Rp1079
sg15
I15
sa(dp1080
g2
F0.45
sg3
F0.075
sg4
g5
(g9
S'\x80\r\x1f9\x073\x95\xc1'
p1081
tp1082
Rp1083
sg15
I15
sa(dp1084
g2
F0.475
sg3
F0.075
sg4
g5
(g9
S'u#\xe7\x8185\x95\xc1'
p1085
tp1086
Rp1087
sg15
I15
sa(dp1088
g2
F0.5
sg3
F0.075
sg4
g5
(g9
S'\xc3Wv\xb0i7\x95\xc1'
p1089
tp1090
Rp1091
sg15
I15
sa(dp1092
g2
F0.025
sg3
F0.45
sg4
g5
(g9
S'\xaep\xc2\xa4~\n\x95\xc1'
p1093
tp1094
Rp1095
sg15
I15
sa(dp1096
g2
F0.05
sg3
F0.45
sg4
g5
(g9
S'[\xdf\x91\xa7z\n\x95\xc1'
p1097
tp1098
Rp1099
sg15
I15
sa(dp1100
g2
F0.075
sg3
F0.45
sg4
g5
(g9
S'\x84\xae&\xac\xf1\x0b\x95\xc1'
p1101
tp1102
Rp1103
sg15
I15
sa(dp1104
g2
F0.45
sg3
F0.45
sg4
g5
(g9
S'\x8ax@)v3\x95\xc1'
p1105
tp1106
Rp1107
sg15
I15
sa(dp1108
g2
F0.475
sg3
F0.45
sg4
g5
(g9
S'\xb4\xb8as\xa65\x95\xc1'
p1109
tp1110
Rp1111
sg15
I15
sa(dp1112
g2
F0.5
sg3
F0.45
sg4
g5
(g9
S'\rc\xb2t\xd67\x95\xc1'
p1113
tp1114
Rp1115
sg15
I15
sa(dp1116
g2
F0.025
sg3
F0.475
sg4
g5
(g9
S'|,T\xdf\x83\n\x95\xc1'
p1117
tp1118
Rp1119
sg15
I15
sa(dp1120
g2
F0.05
sg3
F0.475
sg4
g5
(g9
S'\x1f\xcf\xf4#\x7f\n\x95\xc1'
p1121
tp1122
Rp1123
sg15
I15
sa(dp1124
g2
F0.075
sg3
F0.475
sg4
g5
(g9
S'\xaa/s\x9f\xf7\x0b\x95\xc1'
p1125
tp1126
Rp1127
sg15
I15
sa(dp1128
g2
F0.45
sg3
F0.475
sg4
g5
(g9
S'\x014\xc6V}3\x95\xc1'
p1129
tp1130
Rp1131
sg15
I15
sa(dp1132
g2
F0.475
sg3
F0.475
sg4
g5
(g9
S'\xff\x80k\x96\xad5\x95\xc1'
p1133
tp1134
Rp1135
sg15
I15
sa(dp1136
g2
F0.5
sg3
F0.475
sg4
g5
(g9
S'T\x85o\x8a\xdd7\x95\xc1'
p1137
tp1138
Rp1139
sg15
I15
sa(dp1140
g2
F0.025
sg3
F0.5
sg4
g5
(g9
S'\xa9D\xe6\xdf\x88\n\x95\xc1'
p1141
tp1142
Rp1143
sg15
I15
sa(dp1144
g2
F0.05
sg3
F0.5
sg4
g5
(g9
S'\xd3\x8c\xd0c\x84\n\x95\xc1'
p1145
tp1146
Rp1147
sg15
I15
sa(dp1148
g2
F0.075
sg3
F0.5
sg4
g5
(g9
S'\x0e\xd0}E\xfd\x0b\x95\xc1'
p1149
tp1150
Rp1151
sg15
I15
sa(dp1152
g2
F0.45
sg3
F0.5
sg4
g5
(g9
S'*\x03\xbdk\x843\x95\xc1'
p1153
tp1154
Rp1155
sg15
I15
sa(dp1156
g2
F0.475
sg3
F0.5
sg4
g5
(g9
S'\xb0\xbf\x8e\xa1\xb45\x95\xc1'
p1157
tp1158
Rp1159
sg15
I15
sa(dp1160
g2
F0.5
sg3
F0.5
sg4
g5
(g9
S'\xca\xd6\xc0\x88\xe47\x95\xc1'
p1161
tp1162
Rp1163
sg15
I15
sa(dp1164
g2
F0.025
sg3
F0.025
sg4
g5
(g9
S'\xa3\xb6\xd8_\xa2\xfe\x94\xc1'
p1165
tp1166
Rp1167
sg15
I16
sa(dp1168
g2
F0.05
sg3
F0.025
sg4
g5
(g9
S'\x04\xfc\xde_\xca\xff\x94\xc1'
p1169
tp1170
Rp1171
sg15
I16
sa(dp1172
g2
F0.075
sg3
F0.025
sg4
g5
(g9
S'C\x7fb\xb5{\x01\x95\xc1'
p1173
tp1174
Rp1175
sg15
I16
sa(dp1176
g2
F0.45
sg3
F0.025
sg4
g5
(g9
S'\x0c\x83S&? \x95\xc1'
p1177
tp1178
Rp1179
sg15
I16
sa(dp1180
g2
F0.475
sg3
F0.025
sg4
g5
(g9
S'\x7f)\x14I\x94"\x95\xc1'
p1181
tp1182
Rp1183
sg15
I16
sa(dp1184
g2
F0.5
sg3
F0.025
sg4
g5
(g9
S'*\x94\xe3%\xe8$\x95\xc1'
p1185
tp1186
Rp1187
sg15
I16
sa(dp1188
g2
F0.025
sg3
F0.05
sg4
g5
(g9
S'\xbaM\x0f\x1b\x9f\xfe\x94\xc1'
p1189
tp1190
Rp1191
sg15
I16
sa(dp1192
g2
F0.05
sg3
F0.05
sg4
g5
(g9
S'j\x15*\x92\xc7\xff\x94\xc1'
p1193
tp1194
Rp1195
sg15
I16
sa(dp1196
g2
F0.075
sg3
F0.05
sg4
g5
(g9
S'\xbc\xe4\x86\xf9x\x01\x95\xc1'
p1197
tp1198
Rp1199
sg15
I16
sa(dp1200
g2
F0.45
sg3
F0.05
sg4
g5
(g9
S'\xee\x95\x89\x9aA \x95\xc1'
p1201
tp1202
Rp1203
sg15
I16
sa(dp1204
g2
F0.475
sg3
F0.05
sg4
g5
(g9
S'\x12P\xaa\xda\x96"\x95\xc1'
p1205
tp1206
Rp1207
sg15
I16
sa(dp1208
g2
F0.5
sg3
F0.05
sg4
g5
(g9
S'T\x10\xba\xeb\xea$\x95\xc1'
p1209
tp1210
Rp1211
sg15
I16
sa(dp1212
g2
F0.025
sg3
F0.075
sg4
g5
(g9
S'\x86c\xe2\xd5\xa1\xfe\x94\xc1'
p1213
tp1214
Rp1215
sg15
I16
sa(dp1216
g2
F0.05
sg3
F0.075
sg4
g5
(g9
S'\x10\xeeZn\xca\xff\x94\xc1'
p1217
tp1218
Rp1219
sg15
I16
sa(dp1220
g2
F0.075
sg3
F0.075
sg4
g5
(g9
S'\x1a\xdf\xe8=|\x01\x95\xc1'
p1221
tp1222
Rp1223
sg15
I16
sa(dp1224
g2
F0.45
sg3
F0.075
sg4
g5
(g9
S'\x83\xd3\xe9\xe0H \x95\xc1'
p1225
tp1226
Rp1227
sg15
I16
sa(dp1228
g2
F0.475
sg3
F0.075
sg4
g5
(g9
S'\x7f\x1219\x9e"\x95\xc1'
p1229
tp1230
Rp1231
sg15
I16
sa(dp1232
g2
F0.5
sg3
F0.075
sg4
g5
(g9
S'\xee$_\x90\xf2$\x95\xc1'
p1233
tp1234
Rp1235
sg15
I16
sa(dp1236
g2
F0.025
sg3
F0.45
sg4
g5
(g9
S'M\xe7tH\x1c\xff\x94\xc1'
p1237
tp1238
Rp1239
sg15
I16
sa(dp1240
g2
F0.05
sg3
F0.45
sg4
g5
(g9
S'.\x97+R6\x00\x95\xc1'
p1241
tp1242
Rp1243
sg15
I16
sa(dp1244
g2
F0.075
sg3
F0.45
sg4
g5
(g9
S'\xcc\xf9\xb6\xeb\xe7\x01\x95\xc1'
p1245
tp1246
Rp1247
sg15
I16
sa(dp1248
g2
F0.45
sg3
F0.45
sg4
g5
(g9
S'T\xce!&\xe5 \x95\xc1'
p1249
tp1250
Rp1251
sg15
I16
sa(dp1252
g2
F0.475
sg3
F0.45
sg4
g5
(g9
S'V.\xeb\xe1;#\x95\xc1'
p1253
tp1254
Rp1255
sg15
I16
sa(dp1256
g2
F0.5
sg3
F0.45
sg4
g5
(g9
S'\xc9\x98\nk\x92%\x95\xc1'
p1257
tp1258
Rp1259
sg15
I16
sa(dp1260
g2
F0.025
sg3
F0.475
sg4
g5
(g9
S"+=',%\xff\x94\xc1"
p1261
tp1262
Rp1263
sg15
I16
sa(dp1264
g2
F0.05
sg3
F0.475
sg4
g5
(g9
S'\x1e\\\xba\xd6=\x00\x95\xc1'
p1265
tp1266
Rp1267
sg15
I16
sa(dp1268
g2
F0.075
sg3
F0.475
sg4
g5
(g9
S'|3\xb8\r\xef\x01\x95\xc1'
p1269
tp1270
Rp1271
sg15
I16
sa(dp1272
g2
F0.45
sg3
F0.475
sg4
g5
(g9
S'\xc4i\xdf\x17\xef \x95\xc1'
p1273
tp1274
Rp1275
sg15
I16
sa(dp1276
g2
F0.475
sg3
F0.475
sg4
g5
(g9
S'\x9e\x99\x9e\xe4E#\x95\xc1'
p1277
tp1278
Rp1279
sg15
I16
sa(dp1280
g2
F0.5
sg3
F0.475
sg4
g5
(g9
S'TW\xf6\x90\x9c%\x95\xc1'
p1281
tp1282
Rp1283
sg15
I16
sa(dp1284
g2
F0.025
sg3
F0.5
sg4
g5
(g9
S'\xb5\xc7\xfeA-\xff\x94\xc1'
p1285
tp1286
Rp1287
sg15
I16
sa(dp1288
g2
F0.05
sg3
F0.5
sg4
g5
(g9
S'\x18`\xa1\x04F\x00\x95\xc1'
p1289
tp1290
Rp1291
sg15
I16
sa(dp1292
g2
F0.075
sg3
F0.5
sg4
g5
(g9
S'x\x11|\x9a\xf6\x01\x95\xc1'
p1293
tp1294
Rp1295
sg15
I16
sa(dp1296
g2
F0.45
sg3
F0.5
sg4
g5
(g9
S'\tTg\xef\xf8 \x95\xc1'
p1297
tp1298
Rp1299
sg15
I16
sa(dp1300
g2
F0.475
sg3
F0.5
sg4
g5
(g9
S'\xc5\x9d\x90\xcdO#\x95\xc1'
p1301
tp1302
Rp1303
sg15
I16
sa(dp1304
g2
F0.5
sg3
F0.5
sg4
g5
(g9
S'\xb7\xc2\xf5\x9d\xa6%\x95\xc1'
p1305
tp1306
Rp1307
sg15
I16
sa(dp1308
g2
F0.025
sg3
F0.025
sg4
g5
(g9
S';g\xd8$:\xf6\x94\xc1'
p1309
tp1310
Rp1311
sg15
I17
sa(dp1312
g2
F0.05
sg3
F0.025
sg4
g5
(g9
S'\xb4\xcd\xb5\xcf\xd3\xf6\x94\xc1'
p1313
tp1314
Rp1315
sg15
I17
sa(dp1316
g2
F0.075
sg3
F0.025
sg4
g5
(g9
S'u\xd0\x05"\xb2\xf8\x94\xc1'
p1317
tp1318
Rp1319
sg15
I17
sa(dp1320
g2
F0.45
sg3
F0.025
sg4
g5
(g9
S'\xca^D%\x12\x13\x95\xc1'
p1321
tp1322
Rp1323
sg15
I17
sa(dp1324
g2
F0.475
sg3
F0.025
sg4
g5
(g9
S'\xce\x18\\R\xaf\x14\x95\xc1'
p1325
tp1326
Rp1327
sg15
I17
sa(dp1328
g2
F0.5
sg3
F0.025
sg4
g5
(g9
S'n\xee\xcc\xd7\xef\x16\x95\xc1'
p1329
tp1330
Rp1331
sg15
I17
sa(dp1332
g2
F0.025
sg3
F0.05
sg4
g5
(g9
S'\x8c/\x9f\x95:\xf6\x94\xc1'
p1333
tp1334
Rp1335
sg15
I17
sa(dp1336
g2
F0.05
sg3
F0.05
sg4
g5
(g9
S'\xf6\x14!M\xd5\xf6\x94\xc1'
p1337
tp1338
Rp1339
sg15
I17
sa(dp1340
g2
F0.075
sg3
F0.05
sg4
g5
(g9
S'\xa5\t\x83s\xb7\xf8\x94\xc1'
p1341
tp1342
Rp1343
sg15
I17
sa(dp1344
g2
F0.45
sg3
F0.05
sg4
g5
(g9
S'\x87\x04\x8f\xa0=\x13\x95\xc1'
p1345
tp1346
Rp1347
sg15
I17
sa(dp1348
g2
F0.475
sg3
F0.05
sg4
g5
(g9
S'\x86\x87#D\xb6\x14\x95\xc1'
p1349
tp1350
Rp1351
sg15
I17
sa(dp1352
g2
F0.5
sg3
F0.05
sg4
g5
(g9
S'\xdd\xd1\xdbz\xf5\x16\x95\xc1'
p1353
tp1354
Rp1355
sg15
I17
sa(dp1356
g2
F0.025
sg3
F0.075
sg4
g5
(g9
S'(\x8f\x97\xe8@\xf6\x94\xc1'
p1357
tp1358
Rp1359
sg15
I17
sa(dp1360
g2
F0.05
sg3
F0.075
sg4
g5
(g9
S'\xc7=nH\xdd\xf6\x94\xc1'
p1361
tp1362
Rp1363
sg15
I17
sa(dp1364
g2
F0.075
sg3
F0.075
sg4
g5
(g9
S'\xee(\x857\xc3\xf8\x94\xc1'
p1365
tp1366
Rp1367
sg15
I17
sa(dp1368
g2
F0.45
sg3
F0.075
sg4
g5
(g9
S'\xc0<\x86\xa8\x8a\x13\x95\xc1'
p1369
tp1370
Rp1371
sg15
I17
sa(dp1372
g2
F0.475
sg3
F0.075
sg4
g5
(g9
S'\xc5\xd6Z\xa3\xc1\x14\x95\xc1'
p1373
tp1374
Rp1375
sg15
I17
sa(dp1376
g2
F0.5
sg3
F0.075
sg4
g5
(g9
S'5\xc4\xb6\xbb\xff\x16\x95\xc1'
p1377
tp1378
Rp1379
sg15
I17
sa(dp1380
g2
F0.025
sg3
F0.45
sg4
g5
(g9
S'}\xd8\xf1*\xe1\xf6\x94\xc1'
p1381
tp1382
Rp1383
sg15
I17
sa(dp1384
g2
F0.05
sg3
F0.45
sg4
g5
(g9
S'\x04\xc2\x7fk\xa8\xf7\x94\xc1'
p1385
tp1386
Rp1387
sg15
I17
sa(dp1388
g2
F0.075
sg3
F0.45
sg4
g5
(g9
S'\x8f`v\xf05\xf6\x94\xc1'
p1389
tp1390
Rp1391
sg15
I17
sa(dp1392
g2
F0.45
sg3
F0.45
sg4
g5
(g9
S'\x02\x84\x85Xp\x18\x95\xc1'
p1393
tp1394
Rp1395
sg15
I17
sa(dp1396
g2
F0.475
sg3
F0.45
sg4
g5
(g9
S'qG\xbdO\x85\x15\x95\xc1'
p1397
tp1398
Rp1399
sg15
I17
sa(dp1400
g2
F0.5
sg3
F0.45
sg4
g5
(g9
S'\xc4\x9b\xa1\x04\xb8\x17\x95\xc1'
p1401
tp1402
Rp1403
sg15
I17
sa(dp1404
g2
F0.025
sg3
F0.475
sg4
g5
(g9
S'\xf3\x91\xea\x91\xec\xf6\x94\xc1'
p1405
tp1406
Rp1407
sg15
I17
sa(dp1408
g2
F0.05
sg3
F0.475
sg4
g5
(g9
S'\x17\xa9F;\xba\xf7\x94\xc1'
p1409
tp1410
Rp1411
sg15
I17
sa(dp1412
g2
F0.075
sg3
F0.475
sg4
g5
(g9
S'\xb8Q,\x0e\xec\xf5\x94\xc1'
p1413
tp1414
Rp1415
sg15
I17
sa(dp1416
g2
F0.45
sg3
F0.475
sg4
g5
(g9
S'\xce4\xd1\xb4s\x18\x95\xc1'
p1417
tp1418
Rp1419
sg15
I17
sa(dp1420
g2
F0.475
sg3
F0.475
sg4
g5
(g9
S'e\xb9\xd1\xd4\x90\x15\x95\xc1'
p1421
tp1422
Rp1423
sg15
I17
sa(dp1424
g2
F0.5
sg3
F0.475
sg4
g5
(g9
S'>\x08xa\xc3\x17\x95\xc1'
p1425
tp1426
Rp1427
sg15
I17
sa(dp1428
g2
F0.025
sg3
F0.5
sg4
g5
(g9
S'\xba\xa7\xa8Z\xf8\xf6\x94\xc1'
p1429
tp1430
Rp1431
sg15
I17
sa(dp1432
g2
F0.05
sg3
F0.5
sg4
g5
(g9
S'\xc7\x9a\xb2\xd1\xcd\xf7\x94\xc1'
p1433
tp1434
Rp1435
sg15
I17
sa(dp1436
g2
F0.075
sg3
F0.5
sg4
g5
(g9
S'!T0"\xb0\xf5\x94\xc1'
p1437
tp1438
Rp1439
sg15
I17
sa(dp1440
g2
F0.45
sg3
F0.5
sg4
g5
(g9
S'\x19\x00}\x1dw\x18\x95\xc1'
p1441
tp1442
Rp1443
sg15
I17
sa(dp1444
g2
F0.475
sg3
F0.5
sg4
g5
(g9
S'y\xe48@\x9c\x15\x95\xc1'
p1445
tp1446
Rp1447
sg15
I17
sa(dp1448
g2
F0.5
sg3
F0.5
sg4
g5
(g9
S'\xf9p\xc7\xa6\xce\x17\x95\xc1'
p1449
tp1450
Rp1451
sg15
I17
sa(dp1452
g2
F0.025
sg3
F0.025
sg4
g5
(g9
S'\xd0 v\x96\xe0\xf4\x94\xc1'
p1453
tp1454
Rp1455
sg15
I18
sa(dp1456
g2
F0.05
sg3
F0.025
sg4
g5
(g9
S'^:9|\x0f\xf6\x94\xc1'
p1457
tp1458
Rp1459
sg15
I18
sa(dp1460
g2
F0.075
sg3
F0.025
sg4
g5
(g9
S'\x80Wu\xcb\xc8\xf7\x94\xc1'
p1461
tp1462
Rp1463
sg15
I18
sa(dp1464
g2
F0.45
sg3
F0.025
sg4
g5
(g9
S'\xabW\xd4~\x80\x15\x95\xc1'
p1465
tp1466
Rp1467
sg15
I18
sa(dp1468
g2
F0.475
sg3
F0.025
sg4
g5
(g9
S'<`wU\xfa\x17\x95\xc1'
p1469
tp1470
Rp1471
sg15
I18
sa(dp1472
g2
F0.5
sg3
F0.025
sg4
g5
(g9
S'\x07\x9f\xc8zx\x1a\x95\xc1'
p1473
tp1474
Rp1475
sg15
I18
sa(dp1476
g2
F0.025
sg3
F0.05
sg4
g5
(g9
S'\x8ccgr\xe1\xf4\x94\xc1'
p1477
tp1478
Rp1479
sg15
I18
sa(dp1480
g2
F0.05
sg3
F0.05
sg4
g5
(g9
S'\x88\x9c;\xd3\x10\xf6\x94\xc1'
p1481
tp1482
Rp1483
sg15
I18
sa(dp1484
g2
F0.075
sg3
F0.05
sg4
g5
(g9
S'\x8a-)2\xcb\xf7\x94\xc1'
p1485
tp1486
Rp1487
sg15
I18
sa(dp1488
g2
F0.45
sg3
F0.05
sg4
g5
(g9
S'\x0c{e\xf3\x83\x15\x95\xc1'
p1489
tp1490
Rp1491
sg15
I18
sa(dp1492
g2
F0.475
sg3
F0.05
sg4
g5
(g9
S'\xcd|\xb1\x1c\xfe\x17\x95\xc1'
p1493
tp1494
Rp1495
sg15
I18
sa(dp1496
g2
F0.5
sg3
F0.05
sg4
g5
(g9
S'k$u4|\x1a\x95\xc1'
p1497
tp1498
Rp1499
sg15
I18
sa(dp1500
g2
F0.025
sg3
F0.075
sg4
g5
(g9
S'\xeeXL\x02\xe8\xf4\x94\xc1'
p1501
tp1502
Rp1503
sg15
I18
sa(dp1504
g2
F0.05
sg3
F0.075
sg4
g5
(g9
S's\xf3:\x15\x18\xf6\x94\xc1'
p1505
tp1506
Rp1507
sg15
I18
sa(dp1508
g2
F0.075
sg3
F0.075
sg4
g5
(g9
S'\x9e\x98\xc6\xca\xd2\xf7\x94\xc1'
p1509
tp1510
Rp1511
sg15
I18
sa(dp1512
g2
F0.45
sg3
F0.075
sg4
g5
(g9
S'r\xe2\x0f\x0e\x8c\x15\x95\xc1'
p1513
tp1514
Rp1515
sg15
I18
sa(dp1516
g2
F0.475
sg3
F0.075
sg4
g5
(g9
S'\xe07]B\x06\x18\x95\xc1'
p1517
tp1518
Rp1519
sg15
I18
sa(dp1520
g2
F0.5
sg3
F0.075
sg4
g5
(g9
S'\n\xa9\x84h\x84\x1a\x95\xc1'
p1521
tp1522
Rp1523
sg15
I18
sa(dp1524
g2
F0.025
sg3
F0.45
sg4
g5
(g9
S'\xeag90\x8a\xf5\x94\xc1'
p1525
tp1526
Rp1527
sg15
I18
sa(dp1528
g2
F0.05
sg3
F0.45
sg4
g5
(g9
S'\xae\xeb\xab\x9e\xb7\xf6\x94\xc1'
p1529
tp1530
Rp1531
sg15
I18
sa(dp1532
g2
F0.075
sg3
F0.45
sg4
g5
(g9
S'\x98`\x8cv\x7f\xf8\x94\xc1'
p1533
tp1534
Rp1535
sg15
I18
sa(dp1536
g2
F0.45
sg3
F0.45
sg4
g5
(g9
S'\xec\xb0H\x1e)\x16\x95\xc1'
p1537
tp1538
Rp1539
sg15
I18
sa(dp1540
g2
F0.475
sg3
F0.45
sg4
g5
(g9
S'\xc3\x9f\xc0\x8b\xa6\x18\x95\xc1'
p1541
tp1542
Rp1543
sg15
I18
sa(dp1544
g2
F0.5
sg3
F0.45
sg4
g5
(g9
S'\x7f\x8a\x88\xab&\x1b\x95\xc1'
p1545
tp1546
Rp1547
sg15
I18
sa(dp1548
g2
F0.025
sg3
F0.475
sg4
g5
(g9
S'\xce\xd7\x14^\x95\xf5\x94\xc1'
p1549
tp1550
Rp1551
sg15
I18
sa(dp1552
g2
F0.05
sg3
F0.475
sg4
g5
(g9
S'R\x15\xbfO\xc2\xf6\x94\xc1'
p1553
tp1554
Rp1555
sg15
I18
sa(dp1556
g2
F0.075
sg3
F0.475
sg4
g5
(g9
S'q\x86;\\\x8b\xf8\x94\xc1'
p1557
tp1558
Rp1559
sg15
I18
sa(dp1560
g2
F0.45
sg3
F0.475
sg4
g5
(g9
S'\xa3O,\xfb2\x16\x95\xc1'
p1561
tp1562
Rp1563
sg15
I18
sa(dp1564
g2
F0.475
sg3
F0.475
sg4
g5
(g9
S'\xf1W\x9c\xac\xb0\x18\x95\xc1'
p1565
tp1566
Rp1567
sg15
I18
sa(dp1568
g2
F0.5
sg3
F0.475
sg4
g5
(g9
S'\xd7\xb1"\xf90\x1b\x95\xc1'
p1569
tp1570
Rp1571
sg15
I18
sa(dp1572
g2
F0.025
sg3
F0.5
sg4
g5
(g9
S'\n\x86\xd0\xa7\xa0\xf5\x94\xc1'
p1573
tp1574
Rp1575
sg15
I18
sa(dp1576
g2
F0.05
sg3
F0.5
sg4
g5
(g9
S'\xf3\x1a\x7f\x85\xcd\xf6\x94\xc1'
p1577
tp1578
Rp1579
sg15
I18
sa(dp1580
g2
F0.075
sg3
F0.5
sg4
g5
(g9
S'\x15\x7f\x1b\xef\x97\xf8\x94\xc1'
p1581
tp1582
Rp1583
sg15
I18
sa(dp1584
g2
F0.45
sg3
F0.5
sg4
g5
(g9
S'\x18\x8a\x1b\xb7<\x16\x95\xc1'
p1585
tp1586
Rp1587
sg15
I18
sa(dp1588
g2
F0.475
sg3
F0.5
sg4
g5
(g9
S'?\x97c\xab\xba\x18\x95\xc1'
p1589
tp1590
Rp1591
sg15
I18
sa(dp1592
g2
F0.5
sg3
F0.5
sg4
g5
(g9
S'\x0ba\xac#;\x1b\x95\xc1'
p1593
tp1594
Rp1595
sg15
I18
sa(dp1596
g2
F0.025
sg3
F0.025
sg4
g5
(g9
S'fU\xeb\x90\xb6\xe6\x94\xc1'
p1597
tp1598
Rp1599
sg15
I19
sa(dp1600
g2
F0.05
sg3
F0.025
sg4
g5
(g9
S'\xd0iM\xc6\x05\xe9\x94\xc1'
p1601
tp1602
Rp1603
sg15
I19
sa(dp1604
g2
F0.075
sg3
F0.025
sg4
g5
(g9
S'\xbf[\xb9}L\xed\x94\xc1'
p1605
tp1606
Rp1607
sg15
I19
sa(dp1608
g2
F0.45
sg3
F0.025
sg4
g5
(g9
S'\xf3\x0c._\x9c\x16\x95\xc1'
p1609
tp1610
Rp1611
sg15
I19
sa(dp1612
g2
F0.475
sg3
F0.025
sg4
g5
(g9
S'r\xe1\x86?\xf5\x18\x95\xc1'
p1613
tp1614
Rp1615
sg15
I19
sa(dp1616
g2
F0.5
sg3
F0.025
sg4
g5
(g9
S'\xfd\x96W)I\x1b\x95\xc1'
p1617
tp1618
Rp1619
sg15
I19
sa(dp1620
g2
F0.025
sg3
F0.05
sg4
g5
(g9
S'8\x93V=\xb7\xe6\x94\xc1'
p1621
tp1622
Rp1623
sg15
I19
sa(dp1624
g2
F0.05
sg3
F0.05
sg4
g5
(g9
S'\xccIUy\x04\xe9\x94\xc1'
p1625
tp1626
Rp1627
sg15
I19
sa(dp1628
g2
F0.075
sg3
F0.05
sg4
g5
(g9
S'c!\xd6\x171\xed\x94\xc1'
p1629
tp1630
Rp1631
sg15
I19
sa(dp1632
g2
F0.45
sg3
F0.05
sg4
g5
(g9
S'\xc5\xcbn\xd5\xa4\x16\x95\xc1'
p1633
tp1634
Rp1635
sg15
I19
sa(dp1636
g2
F0.475
sg3
F0.05
sg4
g5
(g9
S'*\n\x0c\xc1\xfd\x18\x95\xc1'
p1637
tp1638
Rp1639
sg15
I19
sa(dp1640
g2
F0.5
sg3
F0.05
sg4
g5
(g9
S'\xaa\xa36\xc1Q\x1b\x95\xc1'
p1641
tp1642
Rp1643
sg15
I19
sa(dp1644
g2
F0.025
sg3
F0.075
sg4
g5
(g9
S'f1\x0e\xbb\xbe\xe6\x94\xc1'
p1645
tp1646
Rp1647
sg15
I19
sa(dp1648
g2
F0.05
sg3
F0.075
sg4
g5
(g9
S's\xc2j\x1a\x0b\xe9\x94\xc1'
p1649
tp1650
Rp1651
sg15
I19
sa(dp1652
g2
F0.075
sg3
F0.075
sg4
g5
(g9
S'\xff\x8aC\x8c"\xed\x94\xc1'
p1653
tp1654
Rp1655
sg15
I19
sa(dp1656
g2
F0.45
sg3
F0.075
sg4
g5
(g9
S'R\xbe\xe4)\xb2\x16\x95\xc1'
p1657
tp1658
Rp1659
sg15
I19
sa(dp1660
g2
F0.475
sg3
F0.075
sg4
g5
(g9
S'\xddn\x9a\x10\x0b\x19\x95\xc1'
p1661
tp1662
Rp1663
sg15
I19
sa(dp1664
g2
F0.5
sg3
F0.075
sg4
g5
(g9
S'6\xab\xc1\x1e_\x1b\x95\xc1'
p1665
tp1666
Rp1667
sg15
I19
sa(dp1668
g2
F0.025
sg3
F0.45
sg4
g5
(g9
S'\x1c{\xda\xf7\x19\xe8\x94\xc1'
p1669
tp1670
Rp1671
sg15
I19
sa(dp1672
g2
F0.05
sg3
F0.45
sg4
g5
(g9
S'\xa6pY\x01\xd5\xea\x94\xc1'
p1673
tp1674
Rp1675
sg15
I19
sa(dp1676
g2
F0.075
sg3
F0.45
sg4
g5
(g9
S'(\r\xdc\x1bc\xee\x94\xc1'
p1677
tp1678
Rp1679
sg15
I19
sa(dp1680
g2
F0.45
sg3
F0.45
sg4
g5
(g9
S'*\xfd\x1f\xce\x91\x17\x95\xc1'
p1681
tp1682
Rp1683
sg15
I19
sa(dp1684
g2
F0.475
sg3
F0.45
sg4
g5
(g9
S'\r\x04\xa2Y\xeb\x19\x95\xc1'
p1685
tp1686
Rp1687
sg15
I19
sa(dp1688
g2
F0.5
sg3
F0.45
sg4
g5
(g9
S'^\xe5\xe4q@\x1c\x95\xc1'
p1689
tp1690
Rp1691
sg15
I19
sa(dp1692
g2
F0.025
sg3
F0.475
sg4
g5
(g9
S'\xd8P\xc4\nC\xe8\x94\xc1'
p1693
tp1694
Rp1695
sg15
I19
sa(dp1696
g2
F0.05
sg3
F0.475
sg4
g5
(g9
S'\x050<\xe7\x01\xeb\x94\xc1'
p1697
tp1698
Rp1699
sg15
I19
sa(dp1700
g2
F0.075
sg3
F0.475
sg4
g5
(g9
S'\x98\xb6\x00\xce\x88\xee\x94\xc1'
p1701
tp1702
Rp1703
sg15
I19
sa(dp1704
g2
F0.45
sg3
F0.475
sg4
g5
(g9
S'\x19\t\xb0\x11\x9f\x17\x95\xc1'
p1705
tp1706
Rp1707
sg15
I19
sa(dp1708
g2
F0.475
sg3
F0.475
sg4
g5
(g9
S'\xc0*F\xaf\xf8\x19\x95\xc1'
p1709
tp1710
Rp1711
sg15
I19
sa(dp1712
g2
F0.5
sg3
F0.475
sg4
g5
(g9
S'Z@\xa9\xdfM\x1c\x95\xc1'
p1713
tp1714
Rp1715
sg15
I19
sa(dp1716
g2
F0.025
sg3
F0.5
sg4
g5
(g9
S'%\n\xb0\x9am\xe8\x94\xc1'
p1717
tp1718
Rp1719
sg15
I19
sa(dp1720
g2
F0.05
sg3
F0.5
sg4
g5
(g9
S'Q\xd3\xfe\x930\xeb\x94\xc1'
p1721
tp1722
Rp1723
sg15
I19
sa(dp1724
g2
F0.075
sg3
F0.5
sg4
g5
(g9
S'\xe7\xa2!6\xb0\xee\x94\xc1'
p1725
tp1726
Rp1727
sg15
I19
sa(dp1728
g2
F0.45
sg3
F0.5
sg4
g5
(g9
S'\x8dm\xfa5\xac\x17\x95\xc1'
p1729
tp1730
Rp1731
sg15
I19
sa(dp1732
g2
F0.475
sg3
F0.5
sg4
g5
(g9
S'\xe1\xebv\xe6\x05\x1a\x95\xc1'
p1733
tp1734
Rp1735
sg15
I19
sa(dp1736
g2
F0.5
sg3
F0.5
sg4
g5
(g9
S'\x9a\x1f]/[\x1c\x95\xc1'
p1737
tp1738
Rp1739
sg15
I19
sa.